Certificate:
    Data:
        Version: 3 (0x2)
        Serial Number:
            91:e9:4c:0b:24:c4:be:bc
        Signature Algorithm: md5WithRSAEncryption
        Issuer: C=DE, ST=Bayern, L=Muenchen, O=Whatever it is, CN=IO::Socket::SSL Test CA
        Validity
            Not Before: Feb 22 08:06:33 2008 GMT
            Not After : Feb 21 08:06:33 2009 GMT
        Subject: C=DE, ST=Bayern, L=Muenchen, O=Whatever it is, CN=server.local
        Subject Public Key Info:
            Public Key Algorithm: rsaEncryption
            RSA Public Key: (1024 bit)
                Modulus (1024 bit):
                    00:ed:89:20:5e:f3:e1:6c:62:f8:11:84:2b:39:88:
                    da:89:fc:c3:b9:de:a5:7c:fd:f2:40:94:97:c7:7e:
                    46:22:b9:13:50:79:91:50:30:f7:dd:53:9b:21:09:
                    30:c9:37:3d:dc:49:1b:1c:08:5e:7f:16:d5:03:d5:
                    83:17:76:06:d6:e6:35:a6:1b:b2:aa:4e:0c:8e:71:
                    16:1c:46:ff:3d:32:9a:43:a6:b0:a0:32:70:b6:59:
                    73:85:3e:5c:3b:c8:22:09:60:cf:57:ca:78:f2:be:
                    db:84:2c:1b:e1:d4:a8:46:82:d1:7b:83:69:a9:cf:
                    c4:0e:6f:33:19:7c:85:fa:bd
                Exponent: 65537 (0x10001)
        X509v3 extensions:
            X509v3 Basic Constraints: 
                CA:FALSE
            Netscape Comment: 
                OpenSSL Generated Certificate
            X509v3 Subject Key Identifier: 
                25:32:75:FD:36:10:15:AB:8A:E6:DC:82:D6:18:62:45:70:E5:65:6B
            X509v3 Authority Key Identifier: 
                keyid:FB:58:E7:57:9D:8A:E9:C1:AF:D8:F0:58:89:E6:BE:56:9C:F7:BB:85
                DirName:/C=DE/ST=Bayern/L=Muenchen/O=Whatever it is/CN=IO::Socket::SSL Test CA
                serial:91:E9:4C:0B:24:C4:BE:B6

            X509v3 Key Usage: 
                Digital Signature, Non Repudiation, Key Encipherment
            X509v3 Subject Alternative Name: 
                DNS:*.server.local, IP Address:127.0.0.1, DNS:www*.other.local, DNS:smtp.mydomain.local, DNS:xn--lwe-sna.idntest.local
    Signature Algorithm: md5WithRSAEncryption
        21:2a:b1:ea:9c:a8:a1:f0:9c:8e:1e:0d:f2:07:85:94:dd:81:
        56:96:06:20:d3:dd:c2:14:59:56:d7:02:91:22:bb:e4:45:c4:
        eb:f3:41:4f:16:38:26:ed:cc:ea:11:4c:13:97:15:29:eb:2f:
        15:4c:a3:b0:2b:7a:3e:c4:00:e3:a6:17:88:31:ea:9f:bd:95:
        94:8e:c1:a4:73:93:8a:9f:6b:99:10:d7:40:47:49:17:1f:0d:
        d1:51:b1:fa:86:ee:61:5d:c8:7b:9e:67:3e:ae:77:67:10:38:
        83:ec:5e:47:24:c1:06:0b:2c:e0:76:00:11:f0:55:55:15:6f:
        e6:16
-----BEGIN CERTIFICATE-----
MIIDujCCAyOgAwIBAgIJAJHpTAskxL68MA0GCSqGSIb3DQEBBAUAMGwxCzAJBgNV
BAYTAkRFMQ8wDQYDVQQIEwZCYXllcm4xETAPBgNVBAcTCE11ZW5jaGVuMRcwFQYD
VQQKEw5XaGF0ZXZlciBpdCBpczEgMB4GA1UEAxMXSU86OlNvY2tldDo6U1NMIFRl
c3QgQ0EwHhcNMDgwMjIyMDgwNjMzWhcNMDkwMjIxMDgwNjMzWjBhMQswCQYDVQQG
EwJERTEPMA0GA1UECBMGQmF5ZXJuMREwDwYDVQQHEwhNdWVuY2hlbjEXMBUGA1UE
ChMOV2hhdGV2ZXIgaXQgaXMxFTATBgNVBAMTDHNlcnZlci5sb2NhbDCBnzANBgkq
hkiG9w0BAQEFAAOBjQAwgYkCgYEA7YkgXvPhbGL4EYQrOYjaifzDud6lfP3yQJSX
x35GIrkTUHmRUDD33VObIQkwyTc93EkbHAhefxbVA9WDF3YG1uY1phuyqk4MjnEW
HEb/PTKaQ6awoDJwtllzhT5cO8giCWDPV8p48r7bhCwb4dSoRoLRe4Npqc/EDm8z
GXyF+r0CAwEAAaOCAW0wggFpMAkGA1UdEwQCMAAwLAYJYIZIAYb4QgENBB8WHU9w
ZW5TU0wgR2VuZXJhdGVkIENlcnRpZmljYXRlMB0GA1UdDgQWBBQlMnX9NhAVq4rm
3ILWGGJFcOVlazCBngYDVR0jBIGWMIGTgBT7WOdXnYrpwa/Y8FiJ5r5WnPe7haFw
pG4wbDELMAkGA1UEBhMCREUxDzANBgNVBAgTBkJheWVybjERMA8GA1UEBxMITXVl
bmNoZW4xFzAVBgNVBAoTDldoYXRldmVyIGl0IGlzMSAwHgYDVQQDExdJTzo6U29j
a2V0OjpTU0wgVGVzdCBDQYIJAJHpTAskxL62MAsGA1UdDwQEAwIF4DBhBgNVHREE
WjBYgg4qLnNlcnZlci5sb2NhbIcEfwAAAYIQd3d3Ki5vdGhlci5sb2NhbIITc210
cC5teWRvbWFpbi5sb2NhbIIZeG4tLWx3ZS1zbmEuaWRudGVzdC5sb2NhbDANBgkq
hkiG9w0BAQQFAAOBgQAhKrHqnKih8JyOHg3yB4WU3YFWlgYg093CFFlW1wKRIrvk
RcTr80FPFjgm7czqEUwTlxUp6y8VTKOwK3o+xADjpheIMeqfvZWUjsGkc5OKn2uZ
ENdAR0kXHw3RUbH6hu5hXch7nmc+rndnEDiD7F5HJMEGCyzgdgAR8FVVFW/mFg==
-----END CERTIFICATE-----
-----BEGIN RSA PRIVATE KEY-----
MIICXQIBAAKBgQDtiSBe8+FsYvgRhCs5iNqJ/MO53qV8/fJAlJfHfkYiuRNQeZFQ
MPfdU5shCTDJNz3cSRscCF5/FtUD1YMXdgbW5jWmG7KqTgyOcRYcRv89MppDprCg
MnC2WXOFPlw7yCIJYM9XynjyvtuELBvh1KhGgtF7g2mpz8QObzMZfIX6vQIDAQAB
AoGAMC0br6ZvFfiMr6DK04R6LnphiBUsI0muFIMOtZtaxjgbPrspScZkvzLxx6WB
i430sfTx1qGr6MLMuVZYnC2H/THrLkMUvZe8hFmwqCvM3/fkupFao+p+2mOcc6hq
hs+J67/B/YC3DQmrz3vN8nEENGgXuYV8L0cEHW8RYGJYHNECQQD9SX+P0OyaBd9P
6J/ivEm3M3Bfii672OyQdkOic77iEnEiSq08YY7/vhVuTe29rNRNz45VXQY02iB0
80BTfwrXAkEA8BRwOqADkXjanTDW+wGga105n1YbFLNGJ8T0efgQitU2htL9jQCN
aR+RQyGTCnNx+GAdJtoWQRklTqE8ZEKoiwJAa4PGZRrPRDYX68iYDdvVArIQEk4K
tmxHRq8c2Jl/PmGLqn2+eXIEDGT4neDweOIjIIBpL60UFF0/B8W12XuE8wJBAKPQ
bluyP30Nh63mW2peS8W2kNDmAgh34xDT1TU8TJ1OqqwIX7XMgLEQNyAlUp249DVT
79BI0xKMQ+aJIhoPWc0CQQDNTZkPN0Evpz07Y/W7EHTiiGrQ4Ta9z32r6Q6dPqK9
l/V2WlS+zGdrnyGf6TrWuAbZv235pr5kYuKuZeNzXkch
-----END RSA PRIVATE KEY-----
