Certificate:
    Data:
        Version: 3 (0x2)
        Serial Number:
            91:e9:4c:0b:24:c4:be:b8
        Signature Algorithm: md5WithRSAEncryption
        Issuer: C=DE, ST=Bayern, L=Muenchen, O=Whatever it is, CN=IO::Socket::SSL Test CA
        Validity
            Not Before: Feb 21 16:19:34 2008 GMT
            Not After : Feb 20 16:19:34 2009 GMT
        Subject: C=US, ST=Some-State, O=IO::Socket::SSL Dummy Server Certificate, CN=IO::Socket::SSL Dummy Server Certificate
        Subject Public Key Info:
            Public Key Algorithm: rsaEncryption
            RSA Public Key: (512 bit)
                Modulus (512 bit):
                    00:9f:27:5f:4a:8a:35:4a:7f:3f:d1:80:25:96:26:
                    0a:da:af:9a:6d:bc:23:ba:71:91:5b:40:d1:2d:2b:
                    c8:60:2a:ef:e9:54:e5:a2:64:0a:57:90:35:bf:cd:
                    b6:36:f3:25:53:68:65:2c:d8:d0:f9:b7:f3:7f:2e:
                    f8:e2:3d:e0:dd
                Exponent: 65537 (0x10001)
        X509v3 extensions:
            X509v3 Basic Constraints: 
                CA:FALSE
            Netscape Comment: 
                OpenSSL Generated Certificate
            X509v3 Subject Key Identifier: 
                76:C0:1F:1B:E5:AE:13:92:1A:7A:DA:07:CF:B9:37:ED:47:1B:DB:A2
            X509v3 Authority Key Identifier: 
                keyid:FB:58:E7:57:9D:8A:E9:C1:AF:D8:F0:58:89:E6:BE:56:9C:F7:BB:85
                DirName:/C=DE/ST=Bayern/L=Muenchen/O=Whatever it is/CN=IO::Socket::SSL Test CA
                serial:91:E9:4C:0B:24:C4:BE:B6

    Signature Algorithm: md5WithRSAEncryption
        4c:23:0c:6d:ad:36:0c:47:b5:bd:1c:70:44:76:a6:e7:8f:81:
        e1:83:55:f0:36:92:a3:34:35:84:a5:55:15:ff:2b:69:a2:f9:
        37:65:0b:4e:78:46:5b:68:57:d9:5f:f0:36:85:6d:c8:fa:9d:
        e5:f9:33:d6:d8:aa:ad:44:e1:2a:e3:73:23:4b:a7:85:a4:6c:
        c0:ef:71:4a:b5:ef:21:fc:04:ff:9e:a4:cd:f3:64:ab:7e:47:
        73:16:90:30:47:ed:15:ba:4a:4b:df:d4:9d:7c:ba:f4:3b:cf:
        27:2c:83:71:94:ca:20:a9:19:9b:03:e5:4d:33:4a:1d:7c:8f:
        8a:e3
-----BEGIN CERTIFICATE-----
MIIDLDCCApWgAwIBAgIJAJHpTAskxL64MA0GCSqGSIb3DQEBBAUAMGwxCzAJBgNV
BAYTAkRFMQ8wDQYDVQQIEwZCYXllcm4xETAPBgNVBAcTCE11ZW5jaGVuMRcwFQYD
VQQKEw5XaGF0ZXZlciBpdCBpczEgMB4GA1UEAxMXSU86OlNvY2tldDo6U1NMIFRl
c3QgQ0EwHhcNMDgwMjIxMTYxOTM0WhcNMDkwMjIwMTYxOTM0WjCBiDELMAkGA1UE
BhMCVVMxEzARBgNVBAgTClNvbWUtU3RhdGUxMTAvBgNVBAoTKElPOjpTb2NrZXQ6
OlNTTCBEdW1teSBTZXJ2ZXIgQ2VydGlmaWNhdGUxMTAvBgNVBAMTKElPOjpTb2Nr
ZXQ6OlNTTCBEdW1teSBTZXJ2ZXIgQ2VydGlmaWNhdGUwXDANBgkqhkiG9w0BAQEF
AANLADBIAkEAnydfSoo1Sn8/0YAlliYK2q+abbwjunGRW0DRLSvIYCrv6VTlomQK
V5A1v822NvMlU2hlLNjQ+bfzfy744j3g3QIDAQABo4H8MIH5MAkGA1UdEwQCMAAw
LAYJYIZIAYb4QgENBB8WHU9wZW5TU0wgR2VuZXJhdGVkIENlcnRpZmljYXRlMB0G
A1UdDgQWBBR2wB8b5a4Tkhp62gfPuTftRxvbojCBngYDVR0jBIGWMIGTgBT7WOdX
nYrpwa/Y8FiJ5r5WnPe7haFwpG4wbDELMAkGA1UEBhMCREUxDzANBgNVBAgTBkJh
eWVybjERMA8GA1UEBxMITXVlbmNoZW4xFzAVBgNVBAoTDldoYXRldmVyIGl0IGlz
MSAwHgYDVQQDExdJTzo6U29ja2V0OjpTU0wgVGVzdCBDQYIJAJHpTAskxL62MA0G
CSqGSIb3DQEBBAUAA4GBAEwjDG2tNgxHtb0ccER2puePgeGDVfA2kqM0NYSlVRX/
K2mi+TdlC054RltoV9lf8DaFbcj6neX5M9bYqq1E4SrjcyNLp4WkbMDvcUq17yH8
BP+epM3zZKt+R3MWkDBH7RW6Skvf1J18uvQ7zycsg3GUyiCpGZsD5U0zSh18j4rj
-----END CERTIFICATE-----
